; Function Attrs: mustprogress uwtable
define noundef range(i32 -2147483644, -2147483648) i32 @_ZN10open_spiel9dou_dizhu24SingleRankHandToActionIdEN4absl7debian24SpanIKiEE(ptr nocapture readonly %0, i64 %1) local_unnamed_addr #4 personality ptr @__gxx_personality_v0 {
  %3 = alloca %"class.std::__cxx11::basic_string", align 8
  %4 = alloca %"class.std::allocator", align 1
  %5 = alloca i32, align 4
  %6 = alloca i32, align 4
  %7 = alloca %"class.std::__cxx11::basic_string", align 8
  %8 = alloca i32, align 4
  %.not25 = icmp ult i64 %1, 15
  br i1 %.not25, label %13, label %_ZNK4absl7debian24SpanIKiEixEm.exit

_ZNK4absl7debian24SpanIKiEixEm.exit:              ; preds = %2, %_ZNK4absl7debian24SpanIKiEixEm.exit
  %indvars.iv = phi i64 [ %indvars.iv.next, %_ZNK4absl7debian24SpanIKiEixEm.exit ], [ 0, %2 ]
  %.023 = phi i32 [ %spec.select15, %_ZNK4absl7debian24SpanIKiEixEm.exit ], [ undef, %2 ]
  %.01222 = phi i32 [ %spec.select, %_ZNK4absl7debian24SpanIKiEixEm.exit ], [ 0, %2 ]
  %9 = getelementptr inbounds i32, ptr %0, i64 %indvars.iv
  %10 = load i32, ptr %9, align 4
  %.not = icmp ne i32 %10, 0
  %11 = zext i1 %.not to i32
  %spec.select = add nuw nsw i32 %.01222, %11
  %12 = trunc nuw nsw i64 %indvars.iv to i32
  %spec.select15 = select i1 %.not, i32 %12, i32 %.023
  %indvars.iv.next = add nuw nsw i64 %indvars.iv, 1
  %exitcond.not = icmp eq i64 %indvars.iv.next, 15
  br i1 %exitcond.not, label %14, label %_ZNK4absl7debian24SpanIKiEixEm.exit, !llvm.loop !27

13:                                               ; preds = %2
  tail call void @llvm.trap()
  unreachable

14:                                               ; preds = %_ZNK4absl7debian24SpanIKiEixEm.exit
  store i32 %spec.select, ptr %5, align 4
  store i32 1, ptr %6, align 4
  %15 = icmp eq i32 %spec.select, 1
  br i1 %15, label %20, label %16

16:                                               ; preds = %14
  store i32 160, ptr %8, align 4
  call void @_ZN10open_spiel8internal11SpielStrCatIJRA144_KcRA2_S2_iS6_RA13_S2_RA9_S2_RA4_S2_RiRA7_S2_SD_EEENSt7__cxx1112basic_stringIcSt11char_traitsIcESaIcEEEDpOT_(ptr dead_on_unwind nonnull writable sret(%"class.std::__cxx11::basic_string") align 8 %7, ptr noundef nonnull align 1 dereferenceable(144) @.str.4, ptr noundef nonnull align 1 dereferenceable(2) @.str.5, ptr noundef nonnull align 4 dereferenceable(4) %8, ptr noundef nonnull align 1 dereferenceable(2) @.str.6, ptr noundef nonnull align 1 dereferenceable(13) @.str.20, ptr noundef nonnull align 1 dereferenceable(9) @.str.21, ptr noundef nonnull align 1 dereferenceable(4) @.str.9, ptr noundef nonnull align 4 dereferenceable(4) %5, ptr noundef nonnull align 1 dereferenceable(7) @.str.22, ptr noundef nonnull align 4 dereferenceable(4) %6)
  invoke void @_ZN10open_spiel15SpielFatalErrorERKNSt7__cxx1112basic_stringIcSt11char_traitsIcESaIcEEE(ptr noundef nonnull align 8 dereferenceable(32) %7) #20
          to label %17 unwind label %18

17:                                               ; preds = %16
  unreachable

common.resume:                                    ; preds = %34, %18
  %common.resume.op = phi { ptr, i32 } [ %19, %18 ], [ %.pn.i, %34 ]
  resume { ptr, i32 } %common.resume.op

18:                                               ; preds = %16
  %19 = landingpad { ptr, i32 }
          cleanup
  call void @_ZNSt7__cxx1112basic_stringIcSt11char_traitsIcESaIcEED1Ev(ptr noundef nonnull align 8 dereferenceable(32) %7) #19
  br label %common.resume

20:                                               ; preds = %14
  %21 = sext i32 %spec.select15 to i64
  %22 = icmp ugt i64 %1, %21
  br i1 %22, label %_ZNK4absl7debian24SpanIKiEixEm.exit16, label %23

23:                                               ; preds = %20
  tail call void @llvm.trap()
  unreachable

_ZNK4absl7debian24SpanIKiEixEm.exit16:            ; preds = %20
  %24 = getelementptr inbounds i32, ptr %0, i64 %21
  %25 = load i32, ptr %24, align 4
  call void @llvm.lifetime.start.p0(i64 32, ptr nonnull %3)
  call void @llvm.lifetime.start.p0(i64 1, ptr nonnull %4)
  %switch.tableidx = add i32 %25, -1
  %26 = icmp ult i32 %switch.tableidx, 4
  br i1 %26, label %switch.lookup, label %27

27:                                               ; preds = %_ZNK4absl7debian24SpanIKiEixEm.exit16
  call void @_ZNSaIcEC1Ev(ptr noundef nonnull align 1 dereferenceable(1) %4) #19
  invoke void @_ZNSt7__cxx1112basic_stringIcSt11char_traitsIcESaIcEEC2IS3_EEPKcRKS3_(ptr noundef nonnull align 8 dereferenceable(32) %3, ptr noundef nonnull @.str.16, ptr noundef nonnull align 1 dereferenceable(1) %4)
          to label %28 unwind label %30

28:                                               ; preds = %27
  invoke void @_ZN10open_spiel15SpielFatalErrorERKNSt7__cxx1112basic_stringIcSt11char_traitsIcESaIcEEE(ptr noundef nonnull align 8 dereferenceable(32) %3) #20
          to label %29 unwind label %32

29:                                               ; preds = %28
  unreachable

30:                                               ; preds = %27
  %31 = landingpad { ptr, i32 }
          cleanup
  br label %34

32:                                               ; preds = %28
  %33 = landingpad { ptr, i32 }
          cleanup
  call void @_ZNSt7__cxx1112basic_stringIcSt11char_traitsIcESaIcEED1Ev(ptr noundef nonnull align 8 dereferenceable(32) %3) #19
  br label %34

34:                                               ; preds = %32, %30
  %.pn.i = phi { ptr, i32 } [ %33, %32 ], [ %31, %30 ]
  call void @_ZNSaIcED1Ev(ptr noundef nonnull align 1 dereferenceable(1) %4) #19
  br label %common.resume

switch.lookup:                                    ; preds = %_ZNK4absl7debian24SpanIKiEixEm.exit16
  %35 = zext nneg i32 %switch.tableidx to i64
  %switch.gep = getelementptr inbounds [4 x i32], ptr @switch.table._ZN10open_spiel9dou_dizhu23SearchSingleRankActionsEPSt6vectorIlSaIlEEN4absl7debian24SpanIKiEEi, i64 0, i64 %35
  %switch.load = load i32, ptr %switch.gep, align 4
  call void @llvm.lifetime.end.p0(i64 32, ptr nonnull %3)
  call void @llvm.lifetime.end.p0(i64 1, ptr nonnull %4)
  %36 = add nsw i32 %switch.load, %spec.select15
  ret i32 %36
}